
kernel8.elf:     file format elf64-littleaarch64

Sections:
Idx Name          Size      VMA               LMA               File off  Algn
  0 .text         00000e50  0000000000080000  0000000000080000  00000080  2**3
                  CONTENTS, ALLOC, LOAD, READONLY, CODE
  1 .rodata       00000178  0000000000080e50  0000000000080e50  00000ed0  2**3
                  CONTENTS, ALLOC, LOAD, READONLY, DATA
  2 .bss          003000b0  0000000000080fd0  0000000000080fd0  00001048  2**4
                  ALLOC
Contents of section .text:
 80000 a10038d5 3f0440f2 60000054 5f2003d5  ..8.?.@.`..T_ ..
 80010 ffffff17 01000090 21000091 3f000091  ........!...?...
 80020 01000090 21403f91 e2000018 82000034  ....!@?........4
 80030 3f8400f8 42040051 a2ffff35 13030094  ?...B..Q...5....
 80040 f3ffff17 16000600 020186d2 830086d2  ................
 80050 02e0a7f2 03e0a7f2 400040b9 610040b9  ........@.@.a.@.
 80060 440040b9 9f00006b 60000054 400040b9  D.@....k`..T@.@.
 80070 610040b9 e103012a 208000aa c0035fd6  a.@....* ....._.
 80080 030186d2 840086d2 03e0a7f2 04e0a7f2  ................
 80090 650040b9 820040b9 610040b9 bf00016b  e.@...@.a.@....k
 800a0 60000054 610040b9 820040b9 e203022a  `..Ta.@...@....*
 800b0 418001aa 410200b4 030186d2 850086d2  A...A...........
 800c0 2040208b 03e0a7f2 05e0a7f2 1f2003d5   @ .......... ..
 800d0 640040b9 a20040b9 610040b9 9f00016b  d.@...@.a.@....k
 800e0 60000054 610040b9 a20040b9 e203022a  `..Ta.@...@....*
 800f0 418001aa 1f0001eb c8feff54 c0035fd6  A..........T.._.
 80100 000c0012 04000090 82403f91 011797d2  .........@?.....
 80110 0200022a 01e0a7f2 200040b9 e0ffff37  ...*.... .@....7
 80120 001497d2 011397d2 00e0a7f2 031097d2  ................
 80130 01e0a7f2 03e0a7f2 020000b9 1f2003d5  ............. ..
 80140 200040b9 e0fff737 600040b9 1f00026b   .@....7`.@....k
 80150 81ffff54 84403f91 0000b052 810440b9  ...T.@?....R..@.
 80160 3f00006b e0179f1a c0035fd6 00000000  ?..k......_.....
 80170 820080d2 831280d2 02e4a7f2 03e4a7f2  ................
 80180 04008452 c0128052 410040b9 2400a072  ...R...RA.@.$..r
 80190 21640e12 2100042a 410000b9 7f0000b9  !d..!..*A.......
 801a0 1f2003d5 00040071 c1ffff54 011380d2  . .....q...T....
 801b0 02009852 01e4a7f2 c0128052 220000b9  ...R.......R"...
 801c0 1f2003d5 00040071 c1ffff54 001380d2  . .....q...T....
 801d0 83008ad2 00e4a7f2 23e4a7f2 89088ad2  ........#.......
 801e0 010c8ad2 1f0000b9 29e4a7f2 21e4a7f2  ........)...!...
 801f0 88098ad2 600040b9 28e4a7f2 070a8ad2  ....`.@.(.......
 80200 05098ad2 00000032 600000b9 3f0100b9  .......2`...?...
 80210 27e4a7f2 3f0000b9 62008052 25e4a7f2  '...?...b..R%...
 80220 020100b9 040d8ad2 ff0000b9 24e4a7f2  ............$...
 80230 c6188052 a60000b9 c0218052 800000b9  ...R.....!.R....
 80240 220000b9 c0035fd6 820a8ad2 22e4a7f2  "....._....."...
 80250 1f2003d5 410040b9 c1ff2f36 01088ad2  . ..A.@.../6....
 80260 21e4a7f2 200000b9 c0035fd6 1f2003d5  !... ....._.. ..
 80270 810a8ad2 21e4a7f2 1f2003d5 200040b9  ....!.... .. .@.
 80280 c0ff0736 00088ad2 41018052 20e4a7f2  ...6....A..R ...
 80290 000040b9 001c0012 1f340071 0010811a  ..@......4.q....
 802a0 c0035fd6 1f2003d5 01004039 21020034  .._.. ....@9!..4
 802b0 820a8ad2 04088ad2 22e4a7f2 24e4a7f2  ........"...$...
 802c0 a5018052 1f2003d5 3f280071 40010054  ...R. ..?(.q@..T
 802d0 03144038 1f2003d5 1f2003d5 410040b9  ..@8. ... ..A.@.
 802e0 c1ff2f36 830000b9 01004039 e1feff35  ../6......@9...5
 802f0 c0035fd6 1f2003d5 410040b9 c1ff2f36  .._.. ..A.@.../6
 80300 850000b9 f3ffff17 820a8ad2 06088ad2  ................
 80310 83038052 22e4a7f2 26e4a7f2 1f2003d5  ...R"...&.... ..
 80320 0124c31a 210c0012 25dc0011 24c00011  .$..!...%...$...
 80330 3f280071 8430851a 1f2003d5 410040b9  ?(.q.0... ..A.@.
 80340 c1ff2f36 c40000b9 63100051 7f100031  ../6....c..Q...1
 80350 81feff54 c0035fd6 fd7bbba9 00000090  ...T.._..{......
 80360 81118052 62009052 fd030091 f30b00f9  ...Rb..R........
 80370 13403f91 01d00fb9 8200a072 01018052  .@?........r...R
 80380 03808052 7f0600b9 00608052 620a00b9  ...R.....`.Rb...
 80390 84009052 610e00b9 8400a072 7f1200b9  ...Ra......r....
 803a0 28019052 631600b9 8800a072 601a00b9  (..Rc......r`...
 803b0 a7009052 641e00b9 8700a072 612200b9  ...Rd......ra"..
 803c0 82008052 7f2600b9 06048052 632a00b9  ...R.&.....Rc*..
 803d0 c5009052 602e00b9 8500a072 683200b9  ...R`......rh2..
 803e0 24008052 613600b9 8400a072 7f3a00b9  $..Ra6.....r.:..
 803f0 03018052 7f3e00b9 8300a072 7f4200b9  ...R.>.....r.B..
 80400 e003012a 674600b9 624a00b9 7f4e00b9  ...*gF..bJ...N..
 80410 665200b9 655600b9 625a00b9 7f5e00b9  fR..eV..bZ...^..
 80420 7f6200b9 646600b9 616a00b9 7f6e00b9  .b..df..aj...n..
 80430 627200b9 7f7600b9 637a00b9 627e00b9  br...v..cz..b~..
 80440 7f8200b9 7f8600b9 7f8a00b9 2dffff97  ............-...
 80450 c0000035 f30b40f9 00000090 fd7bc5a8  ...5..@......{..
 80460 00c03d91 91ffff17 607240b9 060000b0  ..=.....`r@.....
 80470 b4d701a9 140000b0 00740012 607200b9  .........t..`r..
 80480 b6df02a9 150000b0 607240b9 170000b0  ........`r@.....
 80490 671640b9 160000b0 651a40b9 648640b9  g.@.....e.@.d.@.
 804a0 e003002a 635240b9 626240b9 617640b9  ...*cR@.bb@.av@.
 804b0 b8e703a9 190000b0 180000b0 876600b9  .............f..
 804c0 c03800f9 00000090 256b00b9 00403991  .8......%k...@9.
 804d0 047b00b9 e36200b9 c27e00b9 a16e00b9  .{...b...~...n..
 804e0 72ffff97 00000090 00a03991 6fffff97  r.........9.o...
 804f0 806640b9 14000090 94023a91 83ffff97  .f@.......:.....
 80500 e00314aa 69ffff97 00000090 00403a91  ....i........@:.
 80510 66ffff97 206b40b9 7cffff97 e00314aa  f... k@.|.......
 80520 62ffff97 00000090 00a03a91 5fffff97  b.........:._...
 80530 007b40b9 75ffff97 00000090 00003b91  .{@.u.........;.
 80540 5affff97 00000090 00403b91 57ffff97  Z........@;.W...
 80550 e06240b9 6dffff97 00000090 00a03b91  .b@.m.........;.
 80560 52ffff97 00000090 00003c91 4fffff97  R.........<.O...
 80570 c07e40b9 65ffff97 00000090 00603c91  .~@.e........`<.
 80580 4affff97 00000090 00c03c91 47ffff97  J.........<.G...
 80590 607240b9 5dffff97 00000090 00203d91  `r@.]........ =.
 805a0 42ffff97 00000090 00403d91 3fffff97  B........@=.?...
 805b0 a06e40b9 55ffff97 f30b40f9 b4d741a9  .n@.U.....@...A.
 805c0 00000090 b6df42a9 00a03d91 b8e743a9  ......B...=...C.
 805d0 fd7bc5a8 35ffff17 040000b0 0800020b  .{..5...........
 805e0 060000b0 4500010b 873840f9 c6900191  ....E....8@.....
 805f0 1f00086b ca010054 e203012a 3f00056b  ...k...T...*?..k
 80600 0a010054 1f2003d5 c40040b9 0408041b  ...T. ....@.....
 80610 42040011 bf00026b e37824b8 61ffff54  B......k.x$.a..T
 80620 00040011 1f01006b 81feff54 c0035fd6  .......k...T.._.
 80630 1f000071 6d070054 050000b0 060000b0  ...qm..T........
 80640 4d781f53 c6900191 a73840f9 0c008052  Mx.S.....8@....R
 80650 0e008052 1f2003d5 cf010012 4b000c0b  ...R. ......K...
 80660 2e060036 3f000071 4d050054 f003022a  ...6?..qM..T...*
 80670 0f008052 11008052 4a000f0b e9030c2a  ...R...RJ......*
 80680 9f010b6b ca030054 e5030f2a ff010a6b  ...k...T...*...k
 80690 0a010054 1f2003d5 c80040b9 2815081b  ...T. ....@.(...
 806a0 a5040011 bf000a6b e47828b8 61ffff54  .......k.x(.a..T
 806b0 29050011 3f010b6b 81feff54 4a00100b  )...?..k...TJ...
 806c0 e9030c2a 1f2003d5 e503102a 1f020a6b  ...*. .....*...k
 806d0 0a010054 1f2003d5 c80040b9 2815081b  ...T. ....@.(...
 806e0 a5040011 bf000a6b e37828b8 61ffff54  .......k.x(.a..T
 806f0 29050011 3f010b6b 81feff54 310a0011  )...?..k...T1...
 80700 10020d0b ef010d0b 3f00116b 6cfbff54  ........?..kl..T
 80710 ce050011 ec030b2a 1f000e6b e1f9ff54  .......*...k...T
 80720 c0035fd6 f003022a 11008052 3f000071  .._....*...R?..q
 80730 0dffff54 1f2003d5 4a000f0b e9030c2a  ...T. ..J......*
 80740 9f010b6b ca030054 e5030f2a ff010a6b  ...k...T...*...k
 80750 0a010054 1f2003d5 c80040b9 2815081b  ...T. ....@.(...
 80760 a5040011 bf000a6b e37828b8 61ffff54  .......k.x(.a..T
 80770 29050011 3f010b6b 81feff54 4a00100b  )...?..k...TJ...
 80780 e9030c2a 1f2003d5 e503102a 1f020a6b  ...*. .....*...k
 80790 0a010054 1f2003d5 c80040b9 2815081b  ...T. ....@.(...
 807a0 a5040011 bf000a6b e47828b8 61ffff54  .......k.x(.a..T
 807b0 29050011 3f010b6b 81feff54 310a0011  )...?..k...T1...
 807c0 10020d0b ef010d0b 3f00116b 6cfbff54  ........?..kl..T
 807d0 ce050011 ec030b2a 1f000e6b e1f3ff54  .......*...k...T
 807e0 d0ffff17 1f2003d5 010000b0 000000b0  ..... ..........
 807f0 04109052 0310a052 216440b9 0410a072  ...R...R!d@....r
 80800 006840b9 02088052 217c0653 007c0653  .h@....R!|.S.|.S
 80810 88ffff17 00000000 02e4a7d2 831280d2  ................
 80820 03e4a7f2 c0128052 410040b9 21700212  .......RA.@.!p..
 80830 21000532 410000b9 7f0000b9 1f2003d5  !..2A........ ..
 80840 1f2003d5 00040071 c1ffff54 011380d2  . .....q...T....
 80850 02408052 01e4a7f2 c0128052 220000b9  .@.R.......R"...
 80860 1f2003d5 00040071 c1ffff54 011380d2  . .....q...T....
 80870 820080d2 01e4a7f2 02e4a7f2 831280d2  ................
 80880 c0128052 3f0000b9 03e4a7f2 410040b9  ...R?.......A.@.
 80890 21701a12 21001d32 410000b9 7f0000b9  !p..!..2A.......
 808a0 1f2003d5 00040071 c1ffff54 011380d2  . .....q...T....
 808b0 02008152 01e4a7f2 c0128052 220000b9  ...R.......R"...
 808c0 1f2003d5 00040071 c1ffff54 011380d2  . .....q...T....
 808d0 820080d2 01e4a7f2 02e4a7f2 831280d2  ................
 808e0 c0128052 3f0000b9 03e4a7f2 410040b9  ...R?.......A.@.
 808f0 21701d12 410000b9 7f0000b9 1f2003d5  !p..A........ ..
 80900 1f2003d5 00040071 c1ffff54 011380d2  . .....q...T....
 80910 02808052 01e4a7f2 c0128052 220000b9  ...R.......R"...
 80920 1f2003d5 00040071 c1ffff54 011380d2  . .....q...T....
 80930 020580d2 01e4a7f2 02e4a7f2 800380d2  ................
 80940 03408052 3f0000b9 00e4a7f2 430000b9  .@.R?.......C...
 80950 01008152 010000b9 c0035fd6 1f2003d5  ...R......_.. ..
 80960 fd7bbba9 810380d2 01e4a7f2 80018052  .{.............R
 80970 fd030091 f35301a9 14008052 f55b02a9  .....S.....R.[..
 80980 960680d2 f76303a9 f80301aa f92300f9  .....c.......#..
 80990 19408052 390000b9 13008052 15008152  .@.R9......R...R
 809a0 16e4a7f2 b7fdff97 000580d2 00e4a7f2  ................
 809b0 f70300aa 190000b9 c0008052 b1fdff97  ...........R....
 809c0 f50200b9 21008052 2120d31a 2100142a  ....!..R! ..!..*
 809d0 c20240b9 213c0012 c0008052 73060011  ..@.!<.....Rs...
 809e0 5f0076f2 3400941a a6fdff97 150300b9  _.v.4...........
 809f0 7f420071 21feff54 e003142a f92340f9  .B.q!..T...*.#@.
 80a00 f35341a9 f55b42a9 f76343a9 fd7bc5a8  .SA..[B..cC..{..
 80a10 c0035fd6 1f2003d5 02e4a7d2 831280d2  .._.. ..........
 80a20 03e4a7f2 c0128052 410040b9 21700212  .......RA.@.!p..
 80a30 21000532 410000b9 7f0000b9 1f2003d5  !..2A........ ..
 80a40 1f2003d5 00040071 c1ffff54 011380d2  . .....q...T....
 80a50 02408052 01e4a7f2 c0128052 220000b9  .@.R.......R"...
 80a60 1f2003d5 00040071 c1ffff54 001380d2  . .....q...T....
 80a70 00e4a7f2 1f0000b9 c0035fd6 1f2003d5  .........._.. ..
 80a80 800380d2 01408052 00e4a7f2 010000b9  .....@.R........
 80a90 c0035fd6 1f2003d5 000580d2 01408052  .._.. .......@.R
 80aa0 00e4a7f2 010000b9 c0035fd6 1f2003d5  .........._.. ..
 80ab0 820080d2 831280d2 02e4a7f2 03e4a7f2  ................
 80ac0 c0128052 410040b9 21701a12 21001d32  ...RA.@.!p..!..2
 80ad0 410000b9 7f0000b9 1f2003d5 00040071  A........ .....q
 80ae0 c1ffff54 011380d2 02008152 01e4a7f2  ...T.......R....
 80af0 c0128052 220000b9 1f2003d5 00040071  ...R".... .....q
 80b00 c1ffff54 001380d2 00e4a7f2 1f0000b9  ...T............
 80b10 c0035fd6 1f2003d5 800380d2 01008152  .._.. .........R
 80b20 00e4a7f2 010000b9 c0035fd6 1f2003d5  .........._.. ..
 80b30 000580d2 01008152 00e4a7f2 010000b9  .......R........
 80b40 c0035fd6 1f2003d5 820080d2 831280d2  .._.. ..........
 80b50 02e4a7f2 03e4a7f2 c0128052 410040b9  ...........RA.@.
 80b60 21701d12 410000b9 7f0000b9 1f2003d5  !p..A........ ..
 80b70 1f2003d5 00040071 c1ffff54 011380d2  . .....q...T....
 80b80 02808052 01e4a7f2 c0128052 220000b9  ...R.......R"...
 80b90 1f2003d5 00040071 c1ffff54 001380d2  . .....q...T....
 80ba0 00e4a7f2 1f0000b9 c0035fd6 1f2003d5  .........._.. ..
 80bb0 800680d2 00e4a7f2 000040b9 00284ad3  ..........@..(J.
 80bc0 c0035fd6 00000000 e403012a e303022a  .._........*...*
 80bd0 e103002a 22008052 e003042a 7ffeff17  ...*"..R...*....
 80be0 fd7bbea9 fd030091 f35301a9 14008052  .{.......S.....R
 80bf0 13008052 1f2003d5 e003132a 22008052  ...R. .....*"..R
 80c00 03e09f52 7302020b e103142a 73feff97  ...Rs......*s...
 80c10 7f020c71 21ffff54 94060011 9f021071  ...q!..T.......q
 80c20 81feff54 f35341a9 fd7bc2a8 c0035fd6  ...T.SA..{...._.
 80c30 030000b0 63000291 02008052 1f2003d5  ....c......R. ..
 80c40 000080d2 1f2003d5 4100000b 21000012  ..... ..A...!...
 80c50 617820b8 00040091 1f000cf1 61ffff54  ax .........a..T
 80c60 42040011 63003091 5f001071 a1feff54  B...c.0._..q...T
 80c70 c0035fd6 1f2003d5 e003002a c0035fd6  .._.. .....*.._.
 80c80 207c60b3 c0035fd6 fd7bb7a9 fd030091   |`..._..{......
 80c90 f35301a9 f55b02a9 f71b00f9 35fdff97  .S...[......5...
 80ca0 00000090 00403e91 80fdff97 dbfeff97  .....@>.........
 80cb0 aafdff97 030000b0 63000291 02008052  ........c......R
 80cc0 000080d2 1f2003d5 4100000b 21000012  ..... ..A...!...
 80cd0 617820b8 00040091 1f000cf1 61ffff54  ax .........a..T
 80ce0 42040011 63003091 5f001071 a1feff54  B...c.0._..q...T
 80cf0 00000090 00803e91 61008052 a02700f9  ......>.a..R.'..
 80d00 00000090 00a03e91 a14300b9 81008052  ......>..C.....R
 80d10 a02f00f9 00000090 00c03e91 a15300b9  ./........>..S..
 80d20 a03700f9 a1008052 00000090 00e03e91  .7.....R......>.
 80d30 a16300b9 c1008052 a03f00f9 00000090  .c.....R.?......
 80d40 00003f91 a17300b9 e1008052 a18300b9  ..?..s.....R....
 80d50 a04700f9 b7030191 a2ffff97 15008052  .G.............R
 80d60 14008052 03008052 22008052 01008052  ...R...R"..R...R
 80d70 00008052 19feff97 fafeff97 163c0072  ...R.........<.r
 80d80 c0ffff54 130080d2 60008052 12000014  ...T....`..R....
 80d90 1f0c0071 c0040054 1f100071 a1000054  ...q...T...q...T
 80da0 bf020071 e0079f1a b502004b 1f2003d5  ...q.......K. ..
 80db0 e39f0032 22008052 e103142a e003152a  ...2"..R...*...*
 80dc0 73420091 05feff97 7f4201f1 a0020054  sB.......B.....T
 80dd0 e06a73b8 c12ac01a c1fe0736 1f140071  .js..*.....6...q
 80de0 a0020054 6dfdff54 1f180071 a0020054  ...Tm..T...q...T
 80df0 1f1c0071 e1fdff54 9ffe0f71 e39f0032  ...q...T...q...2
 80e00 94a6941a 22008052 e103142a e003152a  ...."..R...*...*
 80e10 73420091 f1fdff97 7f4201f1 a1fdff54  sB.......B.....T
 80e20 a0469052 97fcff97 d4ffff17 6dffff97  .F.R........m...
 80e30 e0ffff17 bffe0b71 b5a6951a ddffff17  .......q........
 80e40 9f020071 e0079f1a 9402004b d9ffff17  ...q.......K....
Contents of section .rodata:
 80e50 4672616d 65206275 66666572 20736574  Frame buffer set
 80e60 74696e67 733a0a00 20202020 77696474  tings:..    widt
 80e70 683a2020 20202020 20307800 00000000  h:       0x.....
 80e80 20706978 656c730a 00000000 00000000   pixels.........
 80e90 20202020 68656967 68743a20 20202020      height:     
 80ea0 20307800 00000000 20202020 70697463   0x.....    pitc
 80eb0 683a2020 20202020 20307800 00000000  h:       0x.....
 80ec0 20627974 65732070 65722072 6f770a00   bytes per row..
 80ed0 20202020 64657074 683a2020 20202020      depth:      
 80ee0 20307800 00000000 20626974 73207065   0x..... bits pe
 80ef0 72207069 78656c0a 00000000 00000000  r pixel.........
 80f00 20202020 70697865 6c206f72 6465723a      pixel order:
 80f10 20307800 00000000 2028303d 4247522c   0x..... (0=BGR,
 80f20 20313d52 4742290a 00000000 00000000   1=RGB).........
 80f30 20202020 61646472 6573733a 20202020      address:    
 80f40 20307800 00000000 0a000000 00000000   0x.............
 80f50 20202020 73697a65 3a202020 20202020      size:       
 80f60 20307800 00000000 20627974 65730a00   0x..... bytes..
 80f70 43616e6e 6f742069 6e697469 616c697a  Cannot initializ
 80f80 65206672 616d6520 62756666 65720a00  e frame buffer..
 80f90 48656c6c 6f20576f 726c6421 00000000  Hello World!....
 80fa0 53746172 74000000 55700000 00000000  Start...Up......
 80fb0 446f776e 00000000 4c656674 00000000  Down....Left....
 80fc0 52696768 74000000                    Right...        

Disassembly of section .text:

0000000000080000 <_start>:
   80000:	d53800a1 	mrs	x1, mpidr_el1
   80004:	f240043f 	tst	x1, #0x3
   80008:	54000060 	b.eq	80014 <core_zero>  // b.none

000000000008000c <loop>:
   8000c:	d503205f 	wfe
   80010:	17ffffff 	b	8000c <loop>

0000000000080014 <core_zero>:
   80014:	90000001 	adrp	x1, 80000 <_start>
   80018:	91000021 	add	x1, x1, #0x0
   8001c:	9100003f 	mov	sp, x1
   80020:	90000001 	adrp	x1, 80000 <_start>
   80024:	913f4021 	add	x1, x1, #0xfd0
   80028:	180000e2 	ldr	w2, 80044 <endloop+0x8>

000000000008002c <top>:
   8002c:	34000082 	cbz	w2, 8003c <endloop>
   80030:	f800843f 	str	xzr, [x1], #8
   80034:	51000442 	sub	w2, w2, #0x1
   80038:	35ffffa2 	cbnz	w2, 8002c <top>

000000000008003c <endloop>:
   8003c:	94000313 	bl	80c88 <main>
   80040:	17fffff3 	b	8000c <loop>
   80044:	00060016 	.word	0x00060016

0000000000080048 <get_timer_counter>:
   80048:	d2860102 	mov	x2, #0x3008                	// #12296
   8004c:	d2860083 	mov	x3, #0x3004                	// #12292
   80050:	f2a7e002 	movk	x2, #0x3f00, lsl #16
   80054:	f2a7e003 	movk	x3, #0x3f00, lsl #16
   80058:	b9400040 	ldr	w0, [x2]
   8005c:	b9400061 	ldr	w1, [x3]
   80060:	b9400044 	ldr	w4, [x2]
   80064:	6b00009f 	cmp	w4, w0
   80068:	54000060 	b.eq	80074 <get_timer_counter+0x2c>  // b.none
   8006c:	b9400040 	ldr	w0, [x2]
   80070:	b9400061 	ldr	w1, [x3]
   80074:	2a0103e1 	mov	w1, w1
   80078:	aa008020 	orr	x0, x1, x0, lsl #32
   8007c:	d65f03c0 	ret

0000000000080080 <microsecond_delay>:
   80080:	d2860103 	mov	x3, #0x3008                	// #12296
   80084:	d2860084 	mov	x4, #0x3004                	// #12292
   80088:	f2a7e003 	movk	x3, #0x3f00, lsl #16
   8008c:	f2a7e004 	movk	x4, #0x3f00, lsl #16
   80090:	b9400065 	ldr	w5, [x3]
   80094:	b9400082 	ldr	w2, [x4]
   80098:	b9400061 	ldr	w1, [x3]
   8009c:	6b0100bf 	cmp	w5, w1
   800a0:	54000060 	b.eq	800ac <microsecond_delay+0x2c>  // b.none
   800a4:	b9400061 	ldr	w1, [x3]
   800a8:	b9400082 	ldr	w2, [x4]
   800ac:	2a0203e2 	mov	w2, w2
   800b0:	aa018041 	orr	x1, x2, x1, lsl #32
   800b4:	b4000241 	cbz	x1, 800fc <microsecond_delay+0x7c>
   800b8:	d2860103 	mov	x3, #0x3008                	// #12296
   800bc:	d2860085 	mov	x5, #0x3004                	// #12292
   800c0:	8b204020 	add	x0, x1, w0, uxtw
   800c4:	f2a7e003 	movk	x3, #0x3f00, lsl #16
   800c8:	f2a7e005 	movk	x5, #0x3f00, lsl #16
   800cc:	d503201f 	nop
   800d0:	b9400064 	ldr	w4, [x3]
   800d4:	b94000a2 	ldr	w2, [x5]
   800d8:	b9400061 	ldr	w1, [x3]
   800dc:	6b01009f 	cmp	w4, w1
   800e0:	54000060 	b.eq	800ec <microsecond_delay+0x6c>  // b.none
   800e4:	b9400061 	ldr	w1, [x3]
   800e8:	b94000a2 	ldr	w2, [x5]
   800ec:	2a0203e2 	mov	w2, w2
   800f0:	aa018041 	orr	x1, x2, x1, lsl #32
   800f4:	eb01001f 	cmp	x0, x1
   800f8:	54fffec8 	b.hi	800d0 <microsecond_delay+0x50>  // b.pmore
   800fc:	d65f03c0 	ret

0000000000080100 <mailbox_query>:
   80100:	12000c00 	and	w0, w0, #0xf
   80104:	90000004 	adrp	x4, 80000 <_start>
   80108:	913f4082 	add	x2, x4, #0xfd0
   8010c:	d2971701 	mov	x1, #0xb8b8                	// #47288
   80110:	2a020002 	orr	w2, w0, w2
   80114:	f2a7e001 	movk	x1, #0x3f00, lsl #16
   80118:	b9400020 	ldr	w0, [x1]
   8011c:	37ffffe0 	tbnz	w0, #31, 80118 <mailbox_query+0x18>
   80120:	d2971400 	mov	x0, #0xb8a0                	// #47264
   80124:	d2971301 	mov	x1, #0xb898                	// #47256
   80128:	f2a7e000 	movk	x0, #0x3f00, lsl #16
   8012c:	d2971003 	mov	x3, #0xb880                	// #47232
   80130:	f2a7e001 	movk	x1, #0x3f00, lsl #16
   80134:	f2a7e003 	movk	x3, #0x3f00, lsl #16
   80138:	b9000002 	str	w2, [x0]
   8013c:	d503201f 	nop
   80140:	b9400020 	ldr	w0, [x1]
   80144:	37f7ffe0 	tbnz	w0, #30, 80140 <mailbox_query+0x40>
   80148:	b9400060 	ldr	w0, [x3]
   8014c:	6b02001f 	cmp	w0, w2
   80150:	54ffff81 	b.ne	80140 <mailbox_query+0x40>  // b.any
   80154:	913f4084 	add	x4, x4, #0xfd0
   80158:	52b00000 	mov	w0, #0x80000000            	// #-2147483648
   8015c:	b9400481 	ldr	w1, [x4, #4]
   80160:	6b00003f 	cmp	w1, w0
   80164:	1a9f17e0 	cset	w0, eq  // eq = none
   80168:	d65f03c0 	ret
   8016c:	00000000 	.inst	0x00000000 ; undefined

0000000000080170 <uart_init>:
   80170:	d2800082 	mov	x2, #0x4                   	// #4
   80174:	d2801283 	mov	x3, #0x94                  	// #148
   80178:	f2a7e402 	movk	x2, #0x3f20, lsl #16
   8017c:	f2a7e403 	movk	x3, #0x3f20, lsl #16
   80180:	52840004 	mov	w4, #0x2000                	// #8192
   80184:	528012c0 	mov	w0, #0x96                  	// #150
   80188:	b9400041 	ldr	w1, [x2]
   8018c:	72a00024 	movk	w4, #0x1, lsl #16
   80190:	120e6421 	and	w1, w1, #0xfffc0fff
   80194:	2a040021 	orr	w1, w1, w4
   80198:	b9000041 	str	w1, [x2]
   8019c:	b900007f 	str	wzr, [x3]
   801a0:	d503201f 	nop
   801a4:	71000400 	subs	w0, w0, #0x1
   801a8:	54ffffc1 	b.ne	801a0 <uart_init+0x30>  // b.any
   801ac:	d2801301 	mov	x1, #0x98                  	// #152
   801b0:	52980002 	mov	w2, #0xc000                	// #49152
   801b4:	f2a7e401 	movk	x1, #0x3f20, lsl #16
   801b8:	528012c0 	mov	w0, #0x96                  	// #150
   801bc:	b9000022 	str	w2, [x1]
   801c0:	d503201f 	nop
   801c4:	71000400 	subs	w0, w0, #0x1
   801c8:	54ffffc1 	b.ne	801c0 <uart_init+0x50>  // b.any
   801cc:	d2801300 	mov	x0, #0x98                  	// #152
   801d0:	d28a0083 	mov	x3, #0x5004                	// #20484
   801d4:	f2a7e400 	movk	x0, #0x3f20, lsl #16
   801d8:	f2a7e423 	movk	x3, #0x3f21, lsl #16
   801dc:	d28a0889 	mov	x9, #0x5044                	// #20548
   801e0:	d28a0c01 	mov	x1, #0x5060                	// #20576
   801e4:	b900001f 	str	wzr, [x0]
   801e8:	f2a7e429 	movk	x9, #0x3f21, lsl #16
   801ec:	f2a7e421 	movk	x1, #0x3f21, lsl #16
   801f0:	d28a0988 	mov	x8, #0x504c                	// #20556
   801f4:	b9400060 	ldr	w0, [x3]
   801f8:	f2a7e428 	movk	x8, #0x3f21, lsl #16
   801fc:	d28a0a07 	mov	x7, #0x5050                	// #20560
   80200:	d28a0905 	mov	x5, #0x5048                	// #20552
   80204:	32000000 	orr	w0, w0, #0x1
   80208:	b9000060 	str	w0, [x3]
   8020c:	b900013f 	str	wzr, [x9]
   80210:	f2a7e427 	movk	x7, #0x3f21, lsl #16
   80214:	b900003f 	str	wzr, [x1]
   80218:	52800062 	mov	w2, #0x3                   	// #3
   8021c:	f2a7e425 	movk	x5, #0x3f21, lsl #16
   80220:	b9000102 	str	w2, [x8]
   80224:	d28a0d04 	mov	x4, #0x5068                	// #20584
   80228:	b90000ff 	str	wzr, [x7]
   8022c:	f2a7e424 	movk	x4, #0x3f21, lsl #16
   80230:	528018c6 	mov	w6, #0xc6                  	// #198
   80234:	b90000a6 	str	w6, [x5]
   80238:	528021c0 	mov	w0, #0x10e                 	// #270
   8023c:	b9000080 	str	w0, [x4]
   80240:	b9000022 	str	w2, [x1]
   80244:	d65f03c0 	ret

0000000000080248 <uart_putc>:
   80248:	d28a0a82 	mov	x2, #0x5054                	// #20564
   8024c:	f2a7e422 	movk	x2, #0x3f21, lsl #16
   80250:	d503201f 	nop
   80254:	b9400041 	ldr	w1, [x2]
   80258:	362fffc1 	tbz	w1, #5, 80250 <uart_putc+0x8>
   8025c:	d28a0801 	mov	x1, #0x5040                	// #20544
   80260:	f2a7e421 	movk	x1, #0x3f21, lsl #16
   80264:	b9000020 	str	w0, [x1]
   80268:	d65f03c0 	ret
   8026c:	d503201f 	nop

0000000000080270 <uart_getc>:
   80270:	d28a0a81 	mov	x1, #0x5054                	// #20564
   80274:	f2a7e421 	movk	x1, #0x3f21, lsl #16
   80278:	d503201f 	nop
   8027c:	b9400020 	ldr	w0, [x1]
   80280:	3607ffc0 	tbz	w0, #0, 80278 <uart_getc+0x8>
   80284:	d28a0800 	mov	x0, #0x5040                	// #20544
   80288:	52800141 	mov	w1, #0xa                   	// #10
   8028c:	f2a7e420 	movk	x0, #0x3f21, lsl #16
   80290:	b9400000 	ldr	w0, [x0]
   80294:	12001c00 	and	w0, w0, #0xff
   80298:	7100341f 	cmp	w0, #0xd
   8029c:	1a811000 	csel	w0, w0, w1, ne  // ne = any
   802a0:	d65f03c0 	ret
   802a4:	d503201f 	nop

00000000000802a8 <uart_puts>:
   802a8:	39400001 	ldrb	w1, [x0]
   802ac:	34000221 	cbz	w1, 802f0 <uart_puts+0x48>
   802b0:	d28a0a82 	mov	x2, #0x5054                	// #20564
   802b4:	d28a0804 	mov	x4, #0x5040                	// #20544
   802b8:	f2a7e422 	movk	x2, #0x3f21, lsl #16
   802bc:	f2a7e424 	movk	x4, #0x3f21, lsl #16
   802c0:	528001a5 	mov	w5, #0xd                   	// #13
   802c4:	d503201f 	nop
   802c8:	7100283f 	cmp	w1, #0xa
   802cc:	54000140 	b.eq	802f4 <uart_puts+0x4c>  // b.none
   802d0:	38401403 	ldrb	w3, [x0], #1
   802d4:	d503201f 	nop
   802d8:	d503201f 	nop
   802dc:	b9400041 	ldr	w1, [x2]
   802e0:	362fffc1 	tbz	w1, #5, 802d8 <uart_puts+0x30>
   802e4:	b9000083 	str	w3, [x4]
   802e8:	39400001 	ldrb	w1, [x0]
   802ec:	35fffee1 	cbnz	w1, 802c8 <uart_puts+0x20>
   802f0:	d65f03c0 	ret
   802f4:	d503201f 	nop
   802f8:	b9400041 	ldr	w1, [x2]
   802fc:	362fffc1 	tbz	w1, #5, 802f4 <uart_puts+0x4c>
   80300:	b9000085 	str	w5, [x4]
   80304:	17fffff3 	b	802d0 <uart_puts+0x28>

0000000000080308 <uart_puthex>:
   80308:	d28a0a82 	mov	x2, #0x5054                	// #20564
   8030c:	d28a0806 	mov	x6, #0x5040                	// #20544
   80310:	52800383 	mov	w3, #0x1c                  	// #28
   80314:	f2a7e422 	movk	x2, #0x3f21, lsl #16
   80318:	f2a7e426 	movk	x6, #0x3f21, lsl #16
   8031c:	d503201f 	nop
   80320:	1ac32401 	lsr	w1, w0, w3
   80324:	12000c21 	and	w1, w1, #0xf
   80328:	1100dc25 	add	w5, w1, #0x37
   8032c:	1100c024 	add	w4, w1, #0x30
   80330:	7100283f 	cmp	w1, #0xa
   80334:	1a853084 	csel	w4, w4, w5, cc  // cc = lo, ul, last
   80338:	d503201f 	nop
   8033c:	b9400041 	ldr	w1, [x2]
   80340:	362fffc1 	tbz	w1, #5, 80338 <uart_puthex+0x30>
   80344:	b90000c4 	str	w4, [x6]
   80348:	51001063 	sub	w3, w3, #0x4
   8034c:	3100107f 	cmn	w3, #0x4
   80350:	54fffe81 	b.ne	80320 <uart_puthex+0x18>  // b.any
   80354:	d65f03c0 	ret

0000000000080358 <initFrameBuffer>:
   80358:	a9bb7bfd 	stp	x29, x30, [sp, #-80]!
   8035c:	90000000 	adrp	x0, 80000 <_start>
   80360:	52801181 	mov	w1, #0x8c                  	// #140
   80364:	52900062 	mov	w2, #0x8003                	// #32771
   80368:	910003fd 	mov	x29, sp
   8036c:	f9000bf3 	str	x19, [sp, #16]
   80370:	913f4013 	add	x19, x0, #0xfd0
   80374:	b90fd001 	str	w1, [x0, #4048]
   80378:	72a00082 	movk	w2, #0x4, lsl #16
   8037c:	52800101 	mov	w1, #0x8                   	// #8
   80380:	52808003 	mov	w3, #0x400                 	// #1024
   80384:	b900067f 	str	wzr, [x19, #4]
   80388:	52806000 	mov	w0, #0x300                 	// #768
   8038c:	b9000a62 	str	w2, [x19, #8]
   80390:	52900084 	mov	w4, #0x8004                	// #32772
   80394:	b9000e61 	str	w1, [x19, #12]
   80398:	72a00084 	movk	w4, #0x4, lsl #16
   8039c:	b900127f 	str	wzr, [x19, #16]
   803a0:	52900128 	mov	w8, #0x8009                	// #32777
   803a4:	b9001663 	str	w3, [x19, #20]
   803a8:	72a00088 	movk	w8, #0x4, lsl #16
   803ac:	b9001a60 	str	w0, [x19, #24]
   803b0:	529000a7 	mov	w7, #0x8005                	// #32773
   803b4:	b9001e64 	str	w4, [x19, #28]
   803b8:	72a00087 	movk	w7, #0x4, lsl #16
   803bc:	b9002261 	str	w1, [x19, #32]
   803c0:	52800082 	mov	w2, #0x4                   	// #4
   803c4:	b900267f 	str	wzr, [x19, #36]
   803c8:	52800406 	mov	w6, #0x20                  	// #32
   803cc:	b9002a63 	str	w3, [x19, #40]
   803d0:	529000c5 	mov	w5, #0x8006                	// #32774
   803d4:	b9002e60 	str	w0, [x19, #44]
   803d8:	72a00085 	movk	w5, #0x4, lsl #16
   803dc:	b9003268 	str	w8, [x19, #48]
   803e0:	52800024 	mov	w4, #0x1                   	// #1
   803e4:	b9003661 	str	w1, [x19, #52]
   803e8:	72a00084 	movk	w4, #0x4, lsl #16
   803ec:	b9003a7f 	str	wzr, [x19, #56]
   803f0:	52800103 	mov	w3, #0x8                   	// #8
   803f4:	b9003e7f 	str	wzr, [x19, #60]
   803f8:	72a00083 	movk	w3, #0x4, lsl #16
   803fc:	b900427f 	str	wzr, [x19, #64]
   80400:	2a0103e0 	mov	w0, w1
   80404:	b9004667 	str	w7, [x19, #68]
   80408:	b9004a62 	str	w2, [x19, #72]
   8040c:	b9004e7f 	str	wzr, [x19, #76]
   80410:	b9005266 	str	w6, [x19, #80]
   80414:	b9005665 	str	w5, [x19, #84]
   80418:	b9005a62 	str	w2, [x19, #88]
   8041c:	b9005e7f 	str	wzr, [x19, #92]
   80420:	b900627f 	str	wzr, [x19, #96]
   80424:	b9006664 	str	w4, [x19, #100]
   80428:	b9006a61 	str	w1, [x19, #104]
   8042c:	b9006e7f 	str	wzr, [x19, #108]
   80430:	b9007262 	str	w2, [x19, #112]
   80434:	b900767f 	str	wzr, [x19, #116]
   80438:	b9007a63 	str	w3, [x19, #120]
   8043c:	b9007e62 	str	w2, [x19, #124]
   80440:	b900827f 	str	wzr, [x19, #128]
   80444:	b900867f 	str	wzr, [x19, #132]
   80448:	b9008a7f 	str	wzr, [x19, #136]
   8044c:	97ffff2d 	bl	80100 <mailbox_query>
   80450:	350000c0 	cbnz	w0, 80468 <initFrameBuffer+0x110>
   80454:	f9400bf3 	ldr	x19, [sp, #16]
   80458:	90000000 	adrp	x0, 80000 <_start>
   8045c:	a8c57bfd 	ldp	x29, x30, [sp], #80
   80460:	913dc000 	add	x0, x0, #0xf70
   80464:	17ffff91 	b	802a8 <uart_puts>
   80468:	b9407260 	ldr	w0, [x19, #112]
   8046c:	b0000006 	adrp	x6, 81000 <mailbox_buffer+0x30>
   80470:	a901d7b4 	stp	x20, x21, [x29, #24]
   80474:	b0000014 	adrp	x20, 81000 <mailbox_buffer+0x30>
   80478:	12007400 	and	w0, w0, #0x3fffffff
   8047c:	b9007260 	str	w0, [x19, #112]
   80480:	a902dfb6 	stp	x22, x23, [x29, #40]
   80484:	b0000015 	adrp	x21, 81000 <mailbox_buffer+0x30>
   80488:	b9407260 	ldr	w0, [x19, #112]
   8048c:	b0000017 	adrp	x23, 81000 <mailbox_buffer+0x30>
   80490:	b9401667 	ldr	w7, [x19, #20]
   80494:	b0000016 	adrp	x22, 81000 <mailbox_buffer+0x30>
   80498:	b9401a65 	ldr	w5, [x19, #24]
   8049c:	b9408664 	ldr	w4, [x19, #132]
   804a0:	2a0003e0 	mov	w0, w0
   804a4:	b9405263 	ldr	w3, [x19, #80]
   804a8:	b9406262 	ldr	w2, [x19, #96]
   804ac:	b9407661 	ldr	w1, [x19, #116]
   804b0:	a903e7b8 	stp	x24, x25, [x29, #56]
   804b4:	b0000019 	adrp	x25, 81000 <mailbox_buffer+0x30>
   804b8:	b0000018 	adrp	x24, 81000 <mailbox_buffer+0x30>
   804bc:	b9006687 	str	w7, [x20, #100]
   804c0:	f90038c0 	str	x0, [x6, #112]
   804c4:	90000000 	adrp	x0, 80000 <_start>
   804c8:	b9006b25 	str	w5, [x25, #104]
   804cc:	91394000 	add	x0, x0, #0xe50
   804d0:	b9007b04 	str	w4, [x24, #120]
   804d4:	b90062e3 	str	w3, [x23, #96]
   804d8:	b9007ec2 	str	w2, [x22, #124]
   804dc:	b9006ea1 	str	w1, [x21, #108]
   804e0:	97ffff72 	bl	802a8 <uart_puts>
   804e4:	90000000 	adrp	x0, 80000 <_start>
   804e8:	9139a000 	add	x0, x0, #0xe68
   804ec:	97ffff6f 	bl	802a8 <uart_puts>
   804f0:	b9406680 	ldr	w0, [x20, #100]
   804f4:	90000014 	adrp	x20, 80000 <_start>
   804f8:	913a0294 	add	x20, x20, #0xe80
   804fc:	97ffff83 	bl	80308 <uart_puthex>
   80500:	aa1403e0 	mov	x0, x20
   80504:	97ffff69 	bl	802a8 <uart_puts>
   80508:	90000000 	adrp	x0, 80000 <_start>
   8050c:	913a4000 	add	x0, x0, #0xe90
   80510:	97ffff66 	bl	802a8 <uart_puts>
   80514:	b9406b20 	ldr	w0, [x25, #104]
   80518:	97ffff7c 	bl	80308 <uart_puthex>
   8051c:	aa1403e0 	mov	x0, x20
   80520:	97ffff62 	bl	802a8 <uart_puts>
   80524:	90000000 	adrp	x0, 80000 <_start>
   80528:	913aa000 	add	x0, x0, #0xea8
   8052c:	97ffff5f 	bl	802a8 <uart_puts>
   80530:	b9407b00 	ldr	w0, [x24, #120]
   80534:	97ffff75 	bl	80308 <uart_puthex>
   80538:	90000000 	adrp	x0, 80000 <_start>
   8053c:	913b0000 	add	x0, x0, #0xec0
   80540:	97ffff5a 	bl	802a8 <uart_puts>
   80544:	90000000 	adrp	x0, 80000 <_start>
   80548:	913b4000 	add	x0, x0, #0xed0
   8054c:	97ffff57 	bl	802a8 <uart_puts>
   80550:	b94062e0 	ldr	w0, [x23, #96]
   80554:	97ffff6d 	bl	80308 <uart_puthex>
   80558:	90000000 	adrp	x0, 80000 <_start>
   8055c:	913ba000 	add	x0, x0, #0xee8
   80560:	97ffff52 	bl	802a8 <uart_puts>
   80564:	90000000 	adrp	x0, 80000 <_start>
   80568:	913c0000 	add	x0, x0, #0xf00
   8056c:	97ffff4f 	bl	802a8 <uart_puts>
   80570:	b9407ec0 	ldr	w0, [x22, #124]
   80574:	97ffff65 	bl	80308 <uart_puthex>
   80578:	90000000 	adrp	x0, 80000 <_start>
   8057c:	913c6000 	add	x0, x0, #0xf18
   80580:	97ffff4a 	bl	802a8 <uart_puts>
   80584:	90000000 	adrp	x0, 80000 <_start>
   80588:	913cc000 	add	x0, x0, #0xf30
   8058c:	97ffff47 	bl	802a8 <uart_puts>
   80590:	b9407260 	ldr	w0, [x19, #112]
   80594:	97ffff5d 	bl	80308 <uart_puthex>
   80598:	90000000 	adrp	x0, 80000 <_start>
   8059c:	913d2000 	add	x0, x0, #0xf48
   805a0:	97ffff42 	bl	802a8 <uart_puts>
   805a4:	90000000 	adrp	x0, 80000 <_start>
   805a8:	913d4000 	add	x0, x0, #0xf50
   805ac:	97ffff3f 	bl	802a8 <uart_puts>
   805b0:	b9406ea0 	ldr	w0, [x21, #108]
   805b4:	97ffff55 	bl	80308 <uart_puthex>
   805b8:	f9400bf3 	ldr	x19, [sp, #16]
   805bc:	a941d7b4 	ldp	x20, x21, [x29, #24]
   805c0:	90000000 	adrp	x0, 80000 <_start>
   805c4:	a942dfb6 	ldp	x22, x23, [x29, #40]
   805c8:	913da000 	add	x0, x0, #0xf68
   805cc:	a943e7b8 	ldp	x24, x25, [x29, #56]
   805d0:	a8c57bfd 	ldp	x29, x30, [sp], #80
   805d4:	17ffff35 	b	802a8 <uart_puts>

00000000000805d8 <drawSquareToFrameBuffer>:
   805d8:	b0000004 	adrp	x4, 81000 <mailbox_buffer+0x30>
   805dc:	0b020008 	add	w8, w0, w2
   805e0:	b0000006 	adrp	x6, 81000 <mailbox_buffer+0x30>
   805e4:	0b010045 	add	w5, w2, w1
   805e8:	f9403887 	ldr	x7, [x4, #112]
   805ec:	910190c6 	add	x6, x6, #0x64
   805f0:	6b08001f 	cmp	w0, w8
   805f4:	540001ca 	b.ge	8062c <drawSquareToFrameBuffer+0x54>  // b.tcont
   805f8:	2a0103e2 	mov	w2, w1
   805fc:	6b05003f 	cmp	w1, w5
   80600:	5400010a 	b.ge	80620 <drawSquareToFrameBuffer+0x48>  // b.tcont
   80604:	d503201f 	nop
   80608:	b94000c4 	ldr	w4, [x6]
   8060c:	1b040804 	madd	w4, w0, w4, w2
   80610:	11000442 	add	w2, w2, #0x1
   80614:	6b0200bf 	cmp	w5, w2
   80618:	b82478e3 	str	w3, [x7, x4, lsl #2]
   8061c:	54ffff61 	b.ne	80608 <drawSquareToFrameBuffer+0x30>  // b.any
   80620:	11000400 	add	w0, w0, #0x1
   80624:	6b00011f 	cmp	w8, w0
   80628:	54fffe81 	b.ne	805f8 <drawSquareToFrameBuffer+0x20>  // b.any
   8062c:	d65f03c0 	ret

0000000000080630 <drawCheckerboard>:
   80630:	7100001f 	cmp	w0, #0x0
   80634:	5400076d 	b.le	80720 <drawCheckerboard+0xf0>
   80638:	b0000005 	adrp	x5, 81000 <mailbox_buffer+0x30>
   8063c:	b0000006 	adrp	x6, 81000 <mailbox_buffer+0x30>
   80640:	531f784d 	lsl	w13, w2, #1
   80644:	910190c6 	add	x6, x6, #0x64
   80648:	f94038a7 	ldr	x7, [x5, #112]
   8064c:	5280000c 	mov	w12, #0x0                   	// #0
   80650:	5280000e 	mov	w14, #0x0                   	// #0
   80654:	d503201f 	nop
   80658:	120001cf 	and	w15, w14, #0x1
   8065c:	0b0c004b 	add	w11, w2, w12
   80660:	3600062e 	tbz	w14, #0, 80724 <drawCheckerboard+0xf4>
   80664:	7100003f 	cmp	w1, #0x0
   80668:	5400054d 	b.le	80710 <drawCheckerboard+0xe0>
   8066c:	2a0203f0 	mov	w16, w2
   80670:	5280000f 	mov	w15, #0x0                   	// #0
   80674:	52800011 	mov	w17, #0x0                   	// #0
   80678:	0b0f004a 	add	w10, w2, w15
   8067c:	2a0c03e9 	mov	w9, w12
   80680:	6b0b019f 	cmp	w12, w11
   80684:	540003ca 	b.ge	806fc <drawCheckerboard+0xcc>  // b.tcont
   80688:	2a0f03e5 	mov	w5, w15
   8068c:	6b0a01ff 	cmp	w15, w10
   80690:	5400010a 	b.ge	806b0 <drawCheckerboard+0x80>  // b.tcont
   80694:	d503201f 	nop
   80698:	b94000c8 	ldr	w8, [x6]
   8069c:	1b081528 	madd	w8, w9, w8, w5
   806a0:	110004a5 	add	w5, w5, #0x1
   806a4:	6b0a00bf 	cmp	w5, w10
   806a8:	b82878e4 	str	w4, [x7, x8, lsl #2]
   806ac:	54ffff61 	b.ne	80698 <drawCheckerboard+0x68>  // b.any
   806b0:	11000529 	add	w9, w9, #0x1
   806b4:	6b0b013f 	cmp	w9, w11
   806b8:	54fffe81 	b.ne	80688 <drawCheckerboard+0x58>  // b.any
   806bc:	0b10004a 	add	w10, w2, w16
   806c0:	2a0c03e9 	mov	w9, w12
   806c4:	d503201f 	nop
   806c8:	2a1003e5 	mov	w5, w16
   806cc:	6b0a021f 	cmp	w16, w10
   806d0:	5400010a 	b.ge	806f0 <drawCheckerboard+0xc0>  // b.tcont
   806d4:	d503201f 	nop
   806d8:	b94000c8 	ldr	w8, [x6]
   806dc:	1b081528 	madd	w8, w9, w8, w5
   806e0:	110004a5 	add	w5, w5, #0x1
   806e4:	6b0a00bf 	cmp	w5, w10
   806e8:	b82878e3 	str	w3, [x7, x8, lsl #2]
   806ec:	54ffff61 	b.ne	806d8 <drawCheckerboard+0xa8>  // b.any
   806f0:	11000529 	add	w9, w9, #0x1
   806f4:	6b0b013f 	cmp	w9, w11
   806f8:	54fffe81 	b.ne	806c8 <drawCheckerboard+0x98>  // b.any
   806fc:	11000a31 	add	w17, w17, #0x2
   80700:	0b0d0210 	add	w16, w16, w13
   80704:	0b0d01ef 	add	w15, w15, w13
   80708:	6b11003f 	cmp	w1, w17
   8070c:	54fffb6c 	b.gt	80678 <drawCheckerboard+0x48>
   80710:	110005ce 	add	w14, w14, #0x1
   80714:	2a0b03ec 	mov	w12, w11
   80718:	6b0e001f 	cmp	w0, w14
   8071c:	54fff9e1 	b.ne	80658 <drawCheckerboard+0x28>  // b.any
   80720:	d65f03c0 	ret
   80724:	2a0203f0 	mov	w16, w2
   80728:	52800011 	mov	w17, #0x0                   	// #0
   8072c:	7100003f 	cmp	w1, #0x0
   80730:	54ffff0d 	b.le	80710 <drawCheckerboard+0xe0>
   80734:	d503201f 	nop
   80738:	0b0f004a 	add	w10, w2, w15
   8073c:	2a0c03e9 	mov	w9, w12
   80740:	6b0b019f 	cmp	w12, w11
   80744:	540003ca 	b.ge	807bc <drawCheckerboard+0x18c>  // b.tcont
   80748:	2a0f03e5 	mov	w5, w15
   8074c:	6b0a01ff 	cmp	w15, w10
   80750:	5400010a 	b.ge	80770 <drawCheckerboard+0x140>  // b.tcont
   80754:	d503201f 	nop
   80758:	b94000c8 	ldr	w8, [x6]
   8075c:	1b081528 	madd	w8, w9, w8, w5
   80760:	110004a5 	add	w5, w5, #0x1
   80764:	6b0a00bf 	cmp	w5, w10
   80768:	b82878e3 	str	w3, [x7, x8, lsl #2]
   8076c:	54ffff61 	b.ne	80758 <drawCheckerboard+0x128>  // b.any
   80770:	11000529 	add	w9, w9, #0x1
   80774:	6b0b013f 	cmp	w9, w11
   80778:	54fffe81 	b.ne	80748 <drawCheckerboard+0x118>  // b.any
   8077c:	0b10004a 	add	w10, w2, w16
   80780:	2a0c03e9 	mov	w9, w12
   80784:	d503201f 	nop
   80788:	2a1003e5 	mov	w5, w16
   8078c:	6b0a021f 	cmp	w16, w10
   80790:	5400010a 	b.ge	807b0 <drawCheckerboard+0x180>  // b.tcont
   80794:	d503201f 	nop
   80798:	b94000c8 	ldr	w8, [x6]
   8079c:	1b081528 	madd	w8, w9, w8, w5
   807a0:	110004a5 	add	w5, w5, #0x1
   807a4:	6b0a00bf 	cmp	w5, w10
   807a8:	b82878e4 	str	w4, [x7, x8, lsl #2]
   807ac:	54ffff61 	b.ne	80798 <drawCheckerboard+0x168>  // b.any
   807b0:	11000529 	add	w9, w9, #0x1
   807b4:	6b0b013f 	cmp	w9, w11
   807b8:	54fffe81 	b.ne	80788 <drawCheckerboard+0x158>  // b.any
   807bc:	11000a31 	add	w17, w17, #0x2
   807c0:	0b0d0210 	add	w16, w16, w13
   807c4:	0b0d01ef 	add	w15, w15, w13
   807c8:	6b11003f 	cmp	w1, w17
   807cc:	54fffb6c 	b.gt	80738 <drawCheckerboard+0x108>
   807d0:	110005ce 	add	w14, w14, #0x1
   807d4:	2a0b03ec 	mov	w12, w11
   807d8:	6b0e001f 	cmp	w0, w14
   807dc:	54fff3e1 	b.ne	80658 <drawCheckerboard+0x28>  // b.any
   807e0:	17ffffd0 	b	80720 <drawCheckerboard+0xf0>
   807e4:	d503201f 	nop

00000000000807e8 <displayFrameBuffer>:
   807e8:	b0000001 	adrp	x1, 81000 <mailbox_buffer+0x30>
   807ec:	b0000000 	adrp	x0, 81000 <mailbox_buffer+0x30>
   807f0:	52901004 	mov	w4, #0x8080                	// #32896
   807f4:	52a01003 	mov	w3, #0x800000              	// #8388608
   807f8:	b9406421 	ldr	w1, [x1, #100]
   807fc:	72a01004 	movk	w4, #0x80, lsl #16
   80800:	b9406800 	ldr	w0, [x0, #104]
   80804:	52800802 	mov	w2, #0x40                  	// #64
   80808:	53067c21 	lsr	w1, w1, #6
   8080c:	53067c00 	lsr	w0, w0, #6
   80810:	17ffff88 	b	80630 <drawCheckerboard>
   80814:	00000000 	.inst	0x00000000 ; undefined

0000000000080818 <initializeSNES>:
   80818:	d2a7e402 	mov	x2, #0x3f200000            	// #1059061760
   8081c:	d2801283 	mov	x3, #0x94                  	// #148
   80820:	f2a7e403 	movk	x3, #0x3f20, lsl #16
   80824:	528012c0 	mov	w0, #0x96                  	// #150
   80828:	b9400041 	ldr	w1, [x2]
   8082c:	12027021 	and	w1, w1, #0xc7ffffff
   80830:	32050021 	orr	w1, w1, #0x8000000
   80834:	b9000041 	str	w1, [x2]
   80838:	b900007f 	str	wzr, [x3]
   8083c:	d503201f 	nop
   80840:	d503201f 	nop
   80844:	71000400 	subs	w0, w0, #0x1
   80848:	54ffffc1 	b.ne	80840 <initializeSNES+0x28>  // b.any
   8084c:	d2801301 	mov	x1, #0x98                  	// #152
   80850:	52804002 	mov	w2, #0x200                 	// #512
   80854:	f2a7e401 	movk	x1, #0x3f20, lsl #16
   80858:	528012c0 	mov	w0, #0x96                  	// #150
   8085c:	b9000022 	str	w2, [x1]
   80860:	d503201f 	nop
   80864:	71000400 	subs	w0, w0, #0x1
   80868:	54ffffc1 	b.ne	80860 <initializeSNES+0x48>  // b.any
   8086c:	d2801301 	mov	x1, #0x98                  	// #152
   80870:	d2800082 	mov	x2, #0x4                   	// #4
   80874:	f2a7e401 	movk	x1, #0x3f20, lsl #16
   80878:	f2a7e402 	movk	x2, #0x3f20, lsl #16
   8087c:	d2801283 	mov	x3, #0x94                  	// #148
   80880:	528012c0 	mov	w0, #0x96                  	// #150
   80884:	b900003f 	str	wzr, [x1]
   80888:	f2a7e403 	movk	x3, #0x3f20, lsl #16
   8088c:	b9400041 	ldr	w1, [x2]
   80890:	121a7021 	and	w1, w1, #0xffffffc7
   80894:	321d0021 	orr	w1, w1, #0x8
   80898:	b9000041 	str	w1, [x2]
   8089c:	b900007f 	str	wzr, [x3]
   808a0:	d503201f 	nop
   808a4:	71000400 	subs	w0, w0, #0x1
   808a8:	54ffffc1 	b.ne	808a0 <initializeSNES+0x88>  // b.any
   808ac:	d2801301 	mov	x1, #0x98                  	// #152
   808b0:	52810002 	mov	w2, #0x800                 	// #2048
   808b4:	f2a7e401 	movk	x1, #0x3f20, lsl #16
   808b8:	528012c0 	mov	w0, #0x96                  	// #150
   808bc:	b9000022 	str	w2, [x1]
   808c0:	d503201f 	nop
   808c4:	71000400 	subs	w0, w0, #0x1
   808c8:	54ffffc1 	b.ne	808c0 <initializeSNES+0xa8>  // b.any
   808cc:	d2801301 	mov	x1, #0x98                  	// #152
   808d0:	d2800082 	mov	x2, #0x4                   	// #4
   808d4:	f2a7e401 	movk	x1, #0x3f20, lsl #16
   808d8:	f2a7e402 	movk	x2, #0x3f20, lsl #16
   808dc:	d2801283 	mov	x3, #0x94                  	// #148
   808e0:	528012c0 	mov	w0, #0x96                  	// #150
   808e4:	b900003f 	str	wzr, [x1]
   808e8:	f2a7e403 	movk	x3, #0x3f20, lsl #16
   808ec:	b9400041 	ldr	w1, [x2]
   808f0:	121d7021 	and	w1, w1, #0xfffffff8
   808f4:	b9000041 	str	w1, [x2]
   808f8:	b900007f 	str	wzr, [x3]
   808fc:	d503201f 	nop
   80900:	d503201f 	nop
   80904:	71000400 	subs	w0, w0, #0x1
   80908:	54ffffc1 	b.ne	80900 <initializeSNES+0xe8>  // b.any
   8090c:	d2801301 	mov	x1, #0x98                  	// #152
   80910:	52808002 	mov	w2, #0x400                 	// #1024
   80914:	f2a7e401 	movk	x1, #0x3f20, lsl #16
   80918:	528012c0 	mov	w0, #0x96                  	// #150
   8091c:	b9000022 	str	w2, [x1]
   80920:	d503201f 	nop
   80924:	71000400 	subs	w0, w0, #0x1
   80928:	54ffffc1 	b.ne	80920 <initializeSNES+0x108>  // b.any
   8092c:	d2801301 	mov	x1, #0x98                  	// #152
   80930:	d2800502 	mov	x2, #0x28                  	// #40
   80934:	f2a7e401 	movk	x1, #0x3f20, lsl #16
   80938:	f2a7e402 	movk	x2, #0x3f20, lsl #16
   8093c:	d2800380 	mov	x0, #0x1c                  	// #28
   80940:	52804003 	mov	w3, #0x200                 	// #512
   80944:	b900003f 	str	wzr, [x1]
   80948:	f2a7e400 	movk	x0, #0x3f20, lsl #16
   8094c:	b9000043 	str	w3, [x2]
   80950:	52810001 	mov	w1, #0x800                 	// #2048
   80954:	b9000001 	str	w1, [x0]
   80958:	d65f03c0 	ret
   8095c:	d503201f 	nop

0000000000080960 <get_SNES>:
   80960:	a9bb7bfd 	stp	x29, x30, [sp, #-80]!
   80964:	d2800381 	mov	x1, #0x1c                  	// #28
   80968:	f2a7e401 	movk	x1, #0x3f20, lsl #16
   8096c:	52800180 	mov	w0, #0xc                   	// #12
   80970:	910003fd 	mov	x29, sp
   80974:	a90153f3 	stp	x19, x20, [sp, #16]
   80978:	52800014 	mov	w20, #0x0                   	// #0
   8097c:	a9025bf5 	stp	x21, x22, [sp, #32]
   80980:	d2800696 	mov	x22, #0x34                  	// #52
   80984:	a90363f7 	stp	x23, x24, [sp, #48]
   80988:	aa0103f8 	mov	x24, x1
   8098c:	f90023f9 	str	x25, [sp, #64]
   80990:	52804019 	mov	w25, #0x200                 	// #512
   80994:	b9000039 	str	w25, [x1]
   80998:	52800013 	mov	w19, #0x0                   	// #0
   8099c:	52810015 	mov	w21, #0x800                 	// #2048
   809a0:	f2a7e416 	movk	x22, #0x3f20, lsl #16
   809a4:	97fffdb7 	bl	80080 <microsecond_delay>
   809a8:	d2800500 	mov	x0, #0x28                  	// #40
   809ac:	f2a7e400 	movk	x0, #0x3f20, lsl #16
   809b0:	aa0003f7 	mov	x23, x0
   809b4:	b9000019 	str	w25, [x0]
   809b8:	528000c0 	mov	w0, #0x6                   	// #6
   809bc:	97fffdb1 	bl	80080 <microsecond_delay>
   809c0:	b90002f5 	str	w21, [x23]
   809c4:	52800021 	mov	w1, #0x1                   	// #1
   809c8:	1ad32021 	lsl	w1, w1, w19
   809cc:	2a140021 	orr	w1, w1, w20
   809d0:	b94002c2 	ldr	w2, [x22]
   809d4:	12003c21 	and	w1, w1, #0xffff
   809d8:	528000c0 	mov	w0, #0x6                   	// #6
   809dc:	11000673 	add	w19, w19, #0x1
   809e0:	f276005f 	tst	x2, #0x400
   809e4:	1a940034 	csel	w20, w1, w20, eq  // eq = none
   809e8:	97fffda6 	bl	80080 <microsecond_delay>
   809ec:	b9000315 	str	w21, [x24]
   809f0:	7100427f 	cmp	w19, #0x10
   809f4:	54fffe21 	b.ne	809b8 <get_SNES+0x58>  // b.any
   809f8:	2a1403e0 	mov	w0, w20
   809fc:	f94023f9 	ldr	x25, [sp, #64]
   80a00:	a94153f3 	ldp	x19, x20, [sp, #16]
   80a04:	a9425bf5 	ldp	x21, x22, [sp, #32]
   80a08:	a94363f7 	ldp	x23, x24, [sp, #48]
   80a0c:	a8c57bfd 	ldp	x29, x30, [sp], #80
   80a10:	d65f03c0 	ret
   80a14:	d503201f 	nop

0000000000080a18 <init_GPIO9_to_output>:
   80a18:	d2a7e402 	mov	x2, #0x3f200000            	// #1059061760
   80a1c:	d2801283 	mov	x3, #0x94                  	// #148
   80a20:	f2a7e403 	movk	x3, #0x3f20, lsl #16
   80a24:	528012c0 	mov	w0, #0x96                  	// #150
   80a28:	b9400041 	ldr	w1, [x2]
   80a2c:	12027021 	and	w1, w1, #0xc7ffffff
   80a30:	32050021 	orr	w1, w1, #0x8000000
   80a34:	b9000041 	str	w1, [x2]
   80a38:	b900007f 	str	wzr, [x3]
   80a3c:	d503201f 	nop
   80a40:	d503201f 	nop
   80a44:	71000400 	subs	w0, w0, #0x1
   80a48:	54ffffc1 	b.ne	80a40 <init_GPIO9_to_output+0x28>  // b.any
   80a4c:	d2801301 	mov	x1, #0x98                  	// #152
   80a50:	52804002 	mov	w2, #0x200                 	// #512
   80a54:	f2a7e401 	movk	x1, #0x3f20, lsl #16
   80a58:	528012c0 	mov	w0, #0x96                  	// #150
   80a5c:	b9000022 	str	w2, [x1]
   80a60:	d503201f 	nop
   80a64:	71000400 	subs	w0, w0, #0x1
   80a68:	54ffffc1 	b.ne	80a60 <init_GPIO9_to_output+0x48>  // b.any
   80a6c:	d2801300 	mov	x0, #0x98                  	// #152
   80a70:	f2a7e400 	movk	x0, #0x3f20, lsl #16
   80a74:	b900001f 	str	wzr, [x0]
   80a78:	d65f03c0 	ret
   80a7c:	d503201f 	nop

0000000000080a80 <set_GPIO9>:
   80a80:	d2800380 	mov	x0, #0x1c                  	// #28
   80a84:	52804001 	mov	w1, #0x200                 	// #512
   80a88:	f2a7e400 	movk	x0, #0x3f20, lsl #16
   80a8c:	b9000001 	str	w1, [x0]
   80a90:	d65f03c0 	ret
   80a94:	d503201f 	nop

0000000000080a98 <clear_GPIO9>:
   80a98:	d2800500 	mov	x0, #0x28                  	// #40
   80a9c:	52804001 	mov	w1, #0x200                 	// #512
   80aa0:	f2a7e400 	movk	x0, #0x3f20, lsl #16
   80aa4:	b9000001 	str	w1, [x0]
   80aa8:	d65f03c0 	ret
   80aac:	d503201f 	nop

0000000000080ab0 <init_GPIO11_to_output>:
   80ab0:	d2800082 	mov	x2, #0x4                   	// #4
   80ab4:	d2801283 	mov	x3, #0x94                  	// #148
   80ab8:	f2a7e402 	movk	x2, #0x3f20, lsl #16
   80abc:	f2a7e403 	movk	x3, #0x3f20, lsl #16
   80ac0:	528012c0 	mov	w0, #0x96                  	// #150
   80ac4:	b9400041 	ldr	w1, [x2]
   80ac8:	121a7021 	and	w1, w1, #0xffffffc7
   80acc:	321d0021 	orr	w1, w1, #0x8
   80ad0:	b9000041 	str	w1, [x2]
   80ad4:	b900007f 	str	wzr, [x3]
   80ad8:	d503201f 	nop
   80adc:	71000400 	subs	w0, w0, #0x1
   80ae0:	54ffffc1 	b.ne	80ad8 <init_GPIO11_to_output+0x28>  // b.any
   80ae4:	d2801301 	mov	x1, #0x98                  	// #152
   80ae8:	52810002 	mov	w2, #0x800                 	// #2048
   80aec:	f2a7e401 	movk	x1, #0x3f20, lsl #16
   80af0:	528012c0 	mov	w0, #0x96                  	// #150
   80af4:	b9000022 	str	w2, [x1]
   80af8:	d503201f 	nop
   80afc:	71000400 	subs	w0, w0, #0x1
   80b00:	54ffffc1 	b.ne	80af8 <init_GPIO11_to_output+0x48>  // b.any
   80b04:	d2801300 	mov	x0, #0x98                  	// #152
   80b08:	f2a7e400 	movk	x0, #0x3f20, lsl #16
   80b0c:	b900001f 	str	wzr, [x0]
   80b10:	d65f03c0 	ret
   80b14:	d503201f 	nop

0000000000080b18 <set_GPIO11>:
   80b18:	d2800380 	mov	x0, #0x1c                  	// #28
   80b1c:	52810001 	mov	w1, #0x800                 	// #2048
   80b20:	f2a7e400 	movk	x0, #0x3f20, lsl #16
   80b24:	b9000001 	str	w1, [x0]
   80b28:	d65f03c0 	ret
   80b2c:	d503201f 	nop

0000000000080b30 <clear_GPIO11>:
   80b30:	d2800500 	mov	x0, #0x28                  	// #40
   80b34:	52810001 	mov	w1, #0x800                 	// #2048
   80b38:	f2a7e400 	movk	x0, #0x3f20, lsl #16
   80b3c:	b9000001 	str	w1, [x0]
   80b40:	d65f03c0 	ret
   80b44:	d503201f 	nop

0000000000080b48 <init_GPIO10_to_input>:
   80b48:	d2800082 	mov	x2, #0x4                   	// #4
   80b4c:	d2801283 	mov	x3, #0x94                  	// #148
   80b50:	f2a7e402 	movk	x2, #0x3f20, lsl #16
   80b54:	f2a7e403 	movk	x3, #0x3f20, lsl #16
   80b58:	528012c0 	mov	w0, #0x96                  	// #150
   80b5c:	b9400041 	ldr	w1, [x2]
   80b60:	121d7021 	and	w1, w1, #0xfffffff8
   80b64:	b9000041 	str	w1, [x2]
   80b68:	b900007f 	str	wzr, [x3]
   80b6c:	d503201f 	nop
   80b70:	d503201f 	nop
   80b74:	71000400 	subs	w0, w0, #0x1
   80b78:	54ffffc1 	b.ne	80b70 <init_GPIO10_to_input+0x28>  // b.any
   80b7c:	d2801301 	mov	x1, #0x98                  	// #152
   80b80:	52808002 	mov	w2, #0x400                 	// #1024
   80b84:	f2a7e401 	movk	x1, #0x3f20, lsl #16
   80b88:	528012c0 	mov	w0, #0x96                  	// #150
   80b8c:	b9000022 	str	w2, [x1]
   80b90:	d503201f 	nop
   80b94:	71000400 	subs	w0, w0, #0x1
   80b98:	54ffffc1 	b.ne	80b90 <init_GPIO10_to_input+0x48>  // b.any
   80b9c:	d2801300 	mov	x0, #0x98                  	// #152
   80ba0:	f2a7e400 	movk	x0, #0x3f20, lsl #16
   80ba4:	b900001f 	str	wzr, [x0]
   80ba8:	d65f03c0 	ret
   80bac:	d503201f 	nop

0000000000080bb0 <get_GPIO10>:
   80bb0:	d2800680 	mov	x0, #0x34                  	// #52
   80bb4:	f2a7e400 	movk	x0, #0x3f20, lsl #16
   80bb8:	b9400000 	ldr	w0, [x0]
   80bbc:	d34a2800 	ubfx	x0, x0, #10, #1
   80bc0:	d65f03c0 	ret
   80bc4:	00000000 	.inst	0x00000000 ; undefined

0000000000080bc8 <drawSquare>:
   80bc8:	2a0103e4 	mov	w4, w1
   80bcc:	2a0203e3 	mov	w3, w2
   80bd0:	2a0003e1 	mov	w1, w0
   80bd4:	52800022 	mov	w2, #0x1                   	// #1
   80bd8:	2a0403e0 	mov	w0, w4
   80bdc:	17fffe7f 	b	805d8 <drawSquareToFrameBuffer>

0000000000080be0 <drawMaze>:
   80be0:	a9be7bfd 	stp	x29, x30, [sp, #-32]!
   80be4:	910003fd 	mov	x29, sp
   80be8:	a90153f3 	stp	x19, x20, [sp, #16]
   80bec:	52800014 	mov	w20, #0x0                   	// #0
   80bf0:	52800013 	mov	w19, #0x0                   	// #0
   80bf4:	d503201f 	nop
   80bf8:	2a1303e0 	mov	w0, w19
   80bfc:	52800022 	mov	w2, #0x1                   	// #1
   80c00:	529fe003 	mov	w3, #0xff00                	// #65280
   80c04:	0b020273 	add	w19, w19, w2
   80c08:	2a1403e1 	mov	w1, w20
   80c0c:	97fffe73 	bl	805d8 <drawSquareToFrameBuffer>
   80c10:	710c027f 	cmp	w19, #0x300
   80c14:	54ffff21 	b.ne	80bf8 <drawMaze+0x18>  // b.any
   80c18:	11000694 	add	w20, w20, #0x1
   80c1c:	7110029f 	cmp	w20, #0x400
   80c20:	54fffe81 	b.ne	80bf0 <drawMaze+0x10>  // b.any
   80c24:	a94153f3 	ldp	x19, x20, [sp, #16]
   80c28:	a8c27bfd 	ldp	x29, x30, [sp], #32
   80c2c:	d65f03c0 	ret

0000000000080c30 <initializeMasterMaze>:
   80c30:	b0000003 	adrp	x3, 81000 <mailbox_buffer+0x30>
   80c34:	91020063 	add	x3, x3, #0x80
   80c38:	52800002 	mov	w2, #0x0                   	// #0
   80c3c:	d503201f 	nop
   80c40:	d2800000 	mov	x0, #0x0                   	// #0
   80c44:	d503201f 	nop
   80c48:	0b000041 	add	w1, w2, w0
   80c4c:	12000021 	and	w1, w1, #0x1
   80c50:	b8207861 	str	w1, [x3, x0, lsl #2]
   80c54:	91000400 	add	x0, x0, #0x1
   80c58:	f10c001f 	cmp	x0, #0x300
   80c5c:	54ffff61 	b.ne	80c48 <initializeMasterMaze+0x18>  // b.any
   80c60:	11000442 	add	w2, w2, #0x1
   80c64:	91300063 	add	x3, x3, #0xc00
   80c68:	7110005f 	cmp	w2, #0x400
   80c6c:	54fffea1 	b.ne	80c40 <initializeMasterMaze+0x10>  // b.any
   80c70:	d65f03c0 	ret
   80c74:	d503201f 	nop

0000000000080c78 <createButton>:
   80c78:	2a0003e0 	mov	w0, w0
   80c7c:	d65f03c0 	ret

0000000000080c80 <createPoint>:
   80c80:	b3607c20 	bfi	x0, x1, #32, #32
   80c84:	d65f03c0 	ret

0000000000080c88 <main>:
   80c88:	a9b77bfd 	stp	x29, x30, [sp, #-144]!
   80c8c:	910003fd 	mov	x29, sp
   80c90:	a90153f3 	stp	x19, x20, [sp, #16]
   80c94:	a9025bf5 	stp	x21, x22, [sp, #32]
   80c98:	f9001bf7 	str	x23, [sp, #48]
   80c9c:	97fffd35 	bl	80170 <uart_init>
   80ca0:	90000000 	adrp	x0, 80000 <_start>
   80ca4:	913e4000 	add	x0, x0, #0xf90
   80ca8:	97fffd80 	bl	802a8 <uart_puts>
   80cac:	97fffedb 	bl	80818 <initializeSNES>
   80cb0:	97fffdaa 	bl	80358 <initFrameBuffer>
   80cb4:	b0000003 	adrp	x3, 81000 <mailbox_buffer+0x30>
   80cb8:	91020063 	add	x3, x3, #0x80
   80cbc:	52800002 	mov	w2, #0x0                   	// #0
   80cc0:	d2800000 	mov	x0, #0x0                   	// #0
   80cc4:	d503201f 	nop
   80cc8:	0b000041 	add	w1, w2, w0
   80ccc:	12000021 	and	w1, w1, #0x1
   80cd0:	b8207861 	str	w1, [x3, x0, lsl #2]
   80cd4:	91000400 	add	x0, x0, #0x1
   80cd8:	f10c001f 	cmp	x0, #0x300
   80cdc:	54ffff61 	b.ne	80cc8 <main+0x40>  // b.any
   80ce0:	11000442 	add	w2, w2, #0x1
   80ce4:	91300063 	add	x3, x3, #0xc00
   80ce8:	7110005f 	cmp	w2, #0x400
   80cec:	54fffea1 	b.ne	80cc0 <main+0x38>  // b.any
   80cf0:	90000000 	adrp	x0, 80000 <_start>
   80cf4:	913e8000 	add	x0, x0, #0xfa0
   80cf8:	52800061 	mov	w1, #0x3                   	// #3
   80cfc:	f90027a0 	str	x0, [x29, #72]
   80d00:	90000000 	adrp	x0, 80000 <_start>
   80d04:	913ea000 	add	x0, x0, #0xfa8
   80d08:	b90043a1 	str	w1, [x29, #64]
   80d0c:	52800081 	mov	w1, #0x4                   	// #4
   80d10:	f9002fa0 	str	x0, [x29, #88]
   80d14:	90000000 	adrp	x0, 80000 <_start>
   80d18:	913ec000 	add	x0, x0, #0xfb0
   80d1c:	b90053a1 	str	w1, [x29, #80]
   80d20:	f90037a0 	str	x0, [x29, #104]
   80d24:	528000a1 	mov	w1, #0x5                   	// #5
   80d28:	90000000 	adrp	x0, 80000 <_start>
   80d2c:	913ee000 	add	x0, x0, #0xfb8
   80d30:	b90063a1 	str	w1, [x29, #96]
   80d34:	528000c1 	mov	w1, #0x6                   	// #6
   80d38:	f9003fa0 	str	x0, [x29, #120]
   80d3c:	90000000 	adrp	x0, 80000 <_start>
   80d40:	913f0000 	add	x0, x0, #0xfc0
   80d44:	b90073a1 	str	w1, [x29, #112]
   80d48:	528000e1 	mov	w1, #0x7                   	// #7
   80d4c:	b90083a1 	str	w1, [x29, #128]
   80d50:	f90047a0 	str	x0, [x29, #136]
   80d54:	910103b7 	add	x23, x29, #0x40
   80d58:	97ffffa2 	bl	80be0 <drawMaze>
   80d5c:	52800015 	mov	w21, #0x0                   	// #0
   80d60:	52800014 	mov	w20, #0x0                   	// #0
   80d64:	52800003 	mov	w3, #0x0                   	// #0
   80d68:	52800022 	mov	w2, #0x1                   	// #1
   80d6c:	52800001 	mov	w1, #0x0                   	// #0
   80d70:	52800000 	mov	w0, #0x0                   	// #0
   80d74:	97fffe19 	bl	805d8 <drawSquareToFrameBuffer>
   80d78:	97fffefa 	bl	80960 <get_SNES>
   80d7c:	72003c16 	ands	w22, w0, #0xffff
   80d80:	54ffffc0 	b.eq	80d78 <main+0xf0>  // b.none
   80d84:	d2800013 	mov	x19, #0x0                   	// #0
   80d88:	52800060 	mov	w0, #0x3                   	// #3
   80d8c:	14000012 	b	80dd4 <main+0x14c>
   80d90:	71000c1f 	cmp	w0, #0x3
   80d94:	540004c0 	b.eq	80e2c <main+0x1a4>  // b.none
   80d98:	7100101f 	cmp	w0, #0x4
   80d9c:	540000a1 	b.ne	80db0 <main+0x128>  // b.any
   80da0:	710002bf 	cmp	w21, #0x0
   80da4:	1a9f07e0 	cset	w0, ne  // ne = any
   80da8:	4b0002b5 	sub	w21, w21, w0
   80dac:	d503201f 	nop
   80db0:	32009fe3 	mov	w3, #0xff00ff              	// #16711935
   80db4:	52800022 	mov	w2, #0x1                   	// #1
   80db8:	2a1403e1 	mov	w1, w20
   80dbc:	2a1503e0 	mov	w0, w21
   80dc0:	91004273 	add	x19, x19, #0x10
   80dc4:	97fffe05 	bl	805d8 <drawSquareToFrameBuffer>
   80dc8:	f101427f 	cmp	x19, #0x50
   80dcc:	540002a0 	b.eq	80e20 <main+0x198>  // b.none
   80dd0:	b8736ae0 	ldr	w0, [x23, x19]
   80dd4:	1ac02ac1 	asr	w1, w22, w0
   80dd8:	3607fec1 	tbz	w1, #0, 80db0 <main+0x128>
   80ddc:	7100141f 	cmp	w0, #0x5
   80de0:	540002a0 	b.eq	80e34 <main+0x1ac>  // b.none
   80de4:	54fffd6d 	b.le	80d90 <main+0x108>
   80de8:	7100181f 	cmp	w0, #0x6
   80dec:	540002a0 	b.eq	80e40 <main+0x1b8>  // b.none
   80df0:	71001c1f 	cmp	w0, #0x7
   80df4:	54fffde1 	b.ne	80db0 <main+0x128>  // b.any
   80df8:	710ffe9f 	cmp	w20, #0x3ff
   80dfc:	32009fe3 	mov	w3, #0xff00ff              	// #16711935
   80e00:	1a94a694 	cinc	w20, w20, lt  // lt = tstop
   80e04:	52800022 	mov	w2, #0x1                   	// #1
   80e08:	2a1403e1 	mov	w1, w20
   80e0c:	2a1503e0 	mov	w0, w21
   80e10:	91004273 	add	x19, x19, #0x10
   80e14:	97fffdf1 	bl	805d8 <drawSquareToFrameBuffer>
   80e18:	f101427f 	cmp	x19, #0x50
   80e1c:	54fffda1 	b.ne	80dd0 <main+0x148>  // b.any
   80e20:	529046a0 	mov	w0, #0x8235                	// #33333
   80e24:	97fffc97 	bl	80080 <microsecond_delay>
   80e28:	17ffffd4 	b	80d78 <main+0xf0>
   80e2c:	97ffff6d 	bl	80be0 <drawMaze>
   80e30:	17ffffe0 	b	80db0 <main+0x128>
   80e34:	710bfebf 	cmp	w21, #0x2ff
   80e38:	1a95a6b5 	cinc	w21, w21, lt  // lt = tstop
   80e3c:	17ffffdd 	b	80db0 <main+0x128>
   80e40:	7100029f 	cmp	w20, #0x0
   80e44:	1a9f07e0 	cset	w0, ne  // ne = any
   80e48:	4b000294 	sub	w20, w20, w0
   80e4c:	17ffffd9 	b	80db0 <main+0x128>
